(dp0
S'taxonomy'
p1
(dp2
VSkateboarding
p3
(dp4
VparentId
p5
I64
sVparentName
p6
VPlaying sports
p7
sVnodeId
p8
I176
sVnodeName
p9
g3
ssVDrinking coffee
p10
(dp11
VparentId
p12
I46
sVparentName
p13
VEating and Drinking
p14
sVnodeId
p15
I68
sVnodeName
p16
g10
ssVZumba
p17
(dp18
VparentId
p19
I55
sVparentName
p20
VDoing aerobics
p21
sVnodeId
p22
I69
sVnodeName
p23
g17
ssVDoing kickboxing
p24
(dp25
VparentId
p26
I27
sVparentName
p27
VParticipating in martial arts
p28
sVnodeId
p29
I70
sVnodeName
p30
g24
ssVDoing karate
p31
(dp32
VparentId
p33
I27
sVparentName
p34
VParticipating in martial arts
p35
sVnodeId
p36
I99
sVnodeName
p37
g31
ssVTango
p38
(dp39
VparentId
p40
I23
sVparentName
p41
VDancing
p42
sVnodeId
p43
I73
sVnodeName
p44
g38
ssVRoof shingle removal
p45
(dp46
VparentId
p47
I312
sVparentName
p48
VExterior repair, improvements, & decoration
p49
sVnodeName
p50
g45
sVnodeId
p51
I360
ssVBoating
p52
(dp53
VparentId
p54
I17
sVparentName
p55
VParticipating in Sports, Exercise, or Recreation
p56
sVnodeName
p57
g52
sVnodeId
p58
I293
ssVVehicle repair and maintenance (by self)
p59
(dp60
VparentId
p61
I13
sVparentName
p62
VVehicles
p63
sVnodeId
p64
I56
sVnodeName
p65
g59
ssVPutting on makeup
p66
(dp67
VparentId
p68
I62
sVparentName
p69
VWashing, dressing and grooming oneself
p70
sVnodeId
p71
I76
sVnodeName
p72
g66
ssVRiding bumper cars
p73
(dp74
VparentId
p75
I48
sVparentName
p76
VPlaying games
p77
sVnodeName
p78
g73
sVnodeId
p79
I356
ssVHigh jump
p80
(dp81
VparentId
p82
I64
sVparentName
p83
VPlaying sports
p84
sVnodeId
p85
I195
sVnodeName
p86
g80
ssVPlaying bagpipes
p87
(dp88
VparentId
p89
I61
sVparentName
p90
VPlaying musical instruments
p91
sVnodeId
p92
I136
sVnodeName
p93
g87
ssVArts and Entertainment
p94
(dp95
VparentId
p96
I7
sVparentName
p97
VSocializing, Relaxing, and Leisure
p98
sVnodeId
p99
I21
sVnodeName
p100
g94
ssVAnimals and Pets
p101
(dp102
VparentId
p103
I1
sVparentName
p104
VHousehold Activities
p105
sVnodeId
p106
I22
sVnodeName
p107
g101
ssVLong jump
p108
(dp109
VparentId
p110
I64
sVparentName
p111
VPlaying sports
p112
sVnodeId
p113
I80
sVnodeName
p114
g108
ssVCricket
p115
(dp116
VparentId
p117
I64
sVparentName
p118
VPlaying sports
p119
sVnodeId
p120
I82
sVnodeName
p121
g115
ssVRemoving ice from car
p122
(dp123
VparentId
p124
I56
sVparentName
p125
VVehicle repair and maintenance (by self)
p126
sVnodeName
p127
g122
sVnodeId
p128
I355
ssVKnitting
p129
(dp130
VparentId
p131
I45
sVparentName
p132
VSewing, repairing, & maintaining textiles
p133
sVnodeName
p134
g129
sVnodeId
p135
I329
ssVSwinging at the playground
p136
(dp137
VparentId
p138
I314
sVparentName
p139
VPark activities
p140
sVnodeName
p141
g136
sVnodeId
p142
I378
ssVClean and jerk
p143
(dp144
VparentId
p145
I35
sVparentName
p146
VWeightlifting
p147
sVnodeId
p148
I84
sVnodeName
p149
g143
ssVThrowing darts
p150
(dp151
VparentId
p152
I48
sVparentName
p153
VPlaying games
p154
sVnodeName
p155
g150
sVnodeId
p156
I380
ssVInterior arrangement, decoration, & repairs
p157
(dp158
VparentId
p159
I15
sVparentName
p160
VInterior Maintenance, Repair, & Decoration
p161
sVnodeId
p162
I33
sVnodeName
p163
g157
ssVRunning
p164
(dp165
VparentId
p166
I17
sVparentName
p167
VParticipating in Sports, Exercise, or Recreation
p168
sVnodeName
p169
g164
sVnodeId
p170
I363
ssVPreparing pasta
p171
(dp172
VparentId
p173
I31
sVparentName
p174
VFood and drink preparation 
p175
sVnodeId
p176
I186
sVnodeName
p177
g171
ssVBathing dog
p178
(dp179
VparentId
p180
I65
sVparentName
p181
VCare for animals and pets (not veterinary care)
p182
sVnodeId
p183
I90
sVnodeName
p184
g178
ssVSharpening knives
p185
(dp186
VparentId
p187
I366
sVparentName
p188
VAppliance, tool, and toy set-up, repair, & maintenance (by self)
p189
sVnodeName
p190
g185
sVnodeId
p191
I365
ssVDiscus throw
p192
(dp193
VparentId
p194
I64
sVparentName
p195
VPlaying sports
p196
sVnodeId
p197
I92
sVnodeName
p198
g192
ssVWeightlifting
p199
(dp200
VparentId
p201
I17
sVparentName
p202
VParticipating in Sports, Exercise, or Recreation
p203
sVnodeId
p204
I35
sVnodeName
p205
g199
ssVPlaying rubik cube
p206
(dp207
VparentId
p208
I48
sVparentName
p209
VPlaying games
p210
sVnodeName
p211
g206
sVnodeId
p212
I349
ssVGrooming horse
p213
(dp214
VparentId
p215
I26
sVparentName
p216
VWalking / exercising / playing with animals
p217
sVnodeId
p218
I95
sVnodeName
p219
g213
ssVGrooming dog
p220
(dp221
VparentId
p222
I65
sVparentName
p223
VCare for animals and pets (not veterinary care)
p224
sVnodeName
p225
g220
sVnodeId
p226
I317
ssVSnatch
p227
(dp228
VparentId
p229
I35
sVparentName
p230
VWeightlifting
p231
sVnodeId
p232
I79
sVnodeName
p233
g227
ssVPreparing salad
p234
(dp235
VparentId
p236
I31
sVparentName
p237
VFood and drink preparation 
p238
sVnodeId
p239
I96
sVnodeName
p240
g234
ssVBeach soccer
p241
(dp242
VparentId
p243
I279
sVparentName
p244
VPlaying soccer
p245
sVnodeName
p246
g241
sVnodeId
p247
I278
ssVPaintball
p248
(dp249
VparentId
p250
I64
sVparentName
p251
VPlaying sports
p252
sVnodeId
p253
I141
sVnodeName
p254
g248
ssVHousehold Management
p255
(dp256
VparentId
p257
I1
sVparentName
p258
VHousehold Activities
p259
sVnodeId
p260
I19
sVnodeName
p261
g255
ssVVehicles
p262
(dp263
VparentId
p264
I1
sVparentName
p265
VHousehold Activities
p266
sVnodeId
p267
I13
sVnodeName
p268
g262
ssVSewing, repairing, & maintaining textiles
p269
(dp270
VparentId
p271
I16
sVparentName
p272
VHousework
p273
sVnodeId
p274
I45
sVnodeName
p275
g269
ssVChopping wood
p276
(dp277
VparentId
p278
I34
sVparentName
p279
VHeating and cooling
p280
sVnodeId
p281
I110
sVnodeName
p282
g276
ssVPlaying drums
p283
(dp284
VparentId
p285
I61
sVparentName
p286
VPlaying musical instruments
p287
sVnodeName
p288
g283
sVnodeId
p289
I346
ssVShuffleboard
p290
(dp291
VparentId
p292
I48
sVparentName
p293
VPlaying games
p294
sVnodeName
p295
g290
sVnodeId
p296
I368
ssVDoing a powerbomb
p297
(dp298
VparentId
p299
I64
sVparentName
p300
VPlaying sports
p301
sVnodeName
p302
g297
sVnodeId
p303
I304
ssVPutting on shoes
p304
(dp305
VparentId
p306
I62
sVparentName
p307
VWashing, dressing and grooming oneself
p308
sVnodeName
p309
g304
sVnodeId
p310
I352
ssVBowling
p311
(dp312
VparentId
p313
I17
sVparentName
p314
VParticipating in Sports, Exercise, or Recreation
p315
sVnodeName
p316
g311
sVnodeId
p317
I284
ssVHealth-related Self Care
p318
(dp319
VparentId
p320
I2
sVparentName
p321
VPersonal Care
p322
sVnodeName
p323
g318
sVnodeId
p324
I270
ssVScuba diving
p325
(dp326
VparentId
p327
I42
sVparentName
p328
VParticipating in water sports
p329
sVnodeName
p330
g325
sVnodeId
p331
I364
ssVPark activities
p332
(dp333
VparentId
p334
I21
sVparentName
p335
VArts and Entertainment
p336
sVnodeName
p337
g332
sVnodeId
p338
I314
ssVExterior cleaning
p339
(dp340
VparentId
p341
I12
sVparentName
p342
VExterior Maintenance, Repair, & Decoration
p343
sVnodeId
p344
I51
sVnodeName
p345
g339
ssVSwimming
p346
(dp347
VparentId
p348
I42
sVparentName
p349
VParticipating in water sports
p350
sVnodeName
p351
g346
sVnodeId
p352
I377
ssVClipping cat claws
p353
(dp354
VparentId
p355
I65
sVparentName
p356
VCare for animals and pets (not veterinary care)
p357
sVnodeName
p358
g353
sVnodeId
p359
I298
ssVPlaying racquet sports 
p360
(dp361
VparentId
p362
I17
sVparentName
p363
VParticipating in Sports, Exercise, or Recreation
p364
sVnodeId
p365
I54
sVnodeName
p366
g360
ssVPlaying ice hockey
p367
(dp368
VparentId
p369
I60
sVparentName
p370
VPlaying hockey
p371
sVnodeName
p372
g367
sVnodeId
p373
I347
ssVPlaying saxophone
p374
(dp375
VparentId
p376
I61
sVparentName
p377
VPlaying musical instruments
p378
sVnodeId
p379
I109
sVnodeName
p380
g374
ssVSnowboarding
p381
(dp382
VparentId
p383
I370
sVparentName
p384
VSkiing, ice skating, snowboarding
p385
sVnodeName
p386
g381
sVnodeId
p387
I373
ssVRelaxing and Leisure
p388
(dp389
VparentId
p390
I7
sVparentName
p391
VSocializing, Relaxing, and Leisure
p392
sVnodeId
p393
I11
sVnodeName
p394
g388
ssVTrimming branches or hedges
p395
(dp396
VparentId
p397
I66
sVparentName
p398
VLawn, garden, and houseplant care
p399
sVnodeName
p400
g395
sVnodeId
p401
I381
ssVWashing face
p402
(dp403
VparentId
p404
I62
sVparentName
p405
VWashing, dressing and grooming oneself
p406
sVnodeId
p407
I113
sVnodeName
p408
g402
ssVFixing the roof
p409
(dp410
VparentId
p411
I312
sVparentName
p412
VExterior repair, improvements, & decoration
p413
sVnodeName
p414
g409
sVnodeId
p415
I311
ssVUsing the rowing machine
p416
(dp417
VparentId
p418
I58
sVparentName
p419
VUsing cardiovascular equipment
p420
sVnodeName
p421
g416
sVnodeId
p422
I384
ssVRunning a marathon
p423
(dp424
VparentId
p425
I363
sVparentName
p426
VRunning
p427
sVnodeName
p428
g423
sVnodeId
p429
I362
ssVJavelin throw
p430
(dp431
VparentId
p432
I64
sVparentName
p433
VPlaying sports
p434
sVnodeId
p435
I116
sVnodeName
p436
g430
ssVPlaying soccer
p437
(dp438
VparentId
p439
I17
sVparentName
p440
VParticipating in Sports, Exercise, or Recreation
p441
sVnodeName
p442
g437
sVnodeId
p443
I279
ssVSpinning
p444
(dp445
VparentId
p446
I58
sVparentName
p447
VUsing cardiovascular equipment
p448
sVnodeId
p449
I117
sVnodeName
p450
g444
ssVPing-pong
p451
(dp452
VparentId
p453
I54
sVparentName
p454
VPlaying racquet sports 
p455
sVnodeId
p456
I119
sVnodeName
p457
g451
ssVPlaying sports
p458
(dp459
VparentId
p460
I17
sVparentName
p461
VParticipating in Sports, Exercise, or Recreation
p462
sVnodeId
p463
I64
sVnodeName
p464
g458
ssVCare for animals and pets (not veterinary care)
p465
(dp466
VparentId
p467
I22
sVparentName
p468
VAnimals and Pets
p469
sVnodeId
p470
I65
sVnodeName
p471
g465
ssVTable soccer
p472
(dp473
VparentId
p474
I48
sVparentName
p475
VPlaying games
p476
sVnodeName
p477
g472
sVnodeId
p478
I379
ssVLongboarding
p479
(dp480
VparentId
p481
I64
sVparentName
p482
VPlaying sports
p483
sVnodeName
p484
g479
sVnodeId
p485
I331
ssVMaking a lemonade
p486
(dp487
VparentId
p488
I31
sVparentName
p489
VFood and drink preparation 
p490
sVnodeName
p491
g486
sVnodeId
p492
I333
ssVInstalling carpet
p493
(dp494
VparentId
p495
I33
sVparentName
p496
VInterior arrangement, decoration, & repairs
p497
sVnodeName
p498
g493
sVnodeId
p499
I326
ssVDancing
p500
(dp501
VparentId
p502
I21
sVparentName
p503
VArts and Entertainment
p504
sVnodeId
p505
I23
sVnodeName
p506
g500
ssVUsing the pommel horse
p507
(dp508
VparentId
p509
I24
sVparentName
p510
VDoing gymnastics
p511
sVnodeId
p512
I114
sVnodeName
p513
g507
ssVMaking a cake
p514
(dp515
VparentId
p516
I31
sVparentName
p517
VFood and drink preparation 
p518
sVnodeName
p519
g514
sVnodeId
p520
I332
ssVHousehold Activities
p521
(dp522
VparentId
p523
I0
sVparentName
p524
VRoot
p525
sVnodeId
p526
I1
sVnodeName
p527
g521
ssVWaterskiing
p528
(dp529
VparentId
p530
I42
sVparentName
p531
VParticipating in water sports
p532
sVnodeName
p533
g528
sVnodeId
p534
I386
ssVCroquet
p535
(dp536
VparentId
p537
I64
sVparentName
p538
VPlaying sports
p539
sVnodeName
p540
g535
sVnodeId
p541
I299
ssVMaking a sandwich
p542
(dp543
VparentId
p544
I31
sVparentName
p545
VFood and drink preparation 
p546
sVnodeId
p547
I129
sVnodeName
p548
g542
ssVPlaying guitarra
p549
(dp550
VparentId
p551
I61
sVparentName
p552
VPlaying musical instruments
p553
sVnodeId
p554
I251
sVnodeName
p555
g549
ssVBeer pong
p556
(dp557
VparentId
p558
I48
sVparentName
p559
VPlaying games
p560
sVnodeName
p561
g556
sVnodeId
p562
I280
ssVBlowing leaves
p563
(dp564
VparentId
p565
I66
sVparentName
p566
VLawn, garden, and houseplant care
p567
sVnodeName
p568
g563
sVnodeId
p569
I282
ssVRock climbing
p570
(dp571
VparentId
p572
I50
sVparentName
p573
VClimbing, spelunking, caving
p574
sVnodeId
p575
I188
sVnodeName
p576
g570
ssVAssembling bicycle
p577
(dp578
VparentId
p579
I56
sVparentName
p580
VVehicle repair and maintenance (by self)
p581
sVnodeName
p582
g577
sVnodeId
p583
I273
ssVHurling
p584
(dp585
VparentId
p586
I64
sVparentName
p587
VPlaying sports
p588
sVnodeName
p589
g584
sVnodeId
p590
I323
ssVWaxing skis
p591
(dp592
VparentId
p593
I366
sVparentName
p594
VAppliance, tool, and toy set-up, repair, & maintenance (by self)
p595
sVnodeName
p596
g591
sVnodeId
p597
I387
ssVTobacco and drug use
p598
(dp599
VparentId
p600
I11
sVparentName
p601
VRelaxing and Leisure
p602
sVnodeId
p603
I28
sVnodeName
p604
g598
ssVFood and drink preparation 
p605
(dp606
VparentId
p607
I18
sVparentName
p608
VFood & Drink Prep., Presentation, & Clean-up
p609
sVnodeId
p610
I31
sVnodeName
p611
g605
ssVDoing fencing
p612
(dp613
VparentId
p614
I310
sVparentName
p615
VFencing
p616
sVnodeName
p617
g612
sVnodeId
p618
I309
ssVInterior Maintenance, Repair, & Decoration
p619
(dp620
VparentId
p621
I1
sVparentName
p622
VHousehold Activities
p623
sVnodeId
p624
I15
sVnodeName
p625
g619
ssVPlaying polo
p626
(dp627
VparentId
p628
I49
sVparentName
p629
VParticipating in equestrian sports
p630
sVnodeId
p631
I75
sVnodeName
p632
g626
ssVCheerleading
p633
(dp634
VparentId
p635
I23
sVparentName
p636
VDancing
p637
sVnodeId
p638
I140
sVnodeName
p639
g633
ssVFood & Drink Prep., Presentation, & Clean-up
p640
(dp641
VparentId
p642
I4
sVparentName
p643
VEating and drinking Activities
p644
sVnodeId
p645
I18
sVnodeName
p646
g640
ssVSocializing, Relaxing, and Leisure
p647
(dp648
VparentId
p649
I0
sVparentName
p650
VRoot
p651
sVnodeId
p652
I7
sVnodeName
p653
g647
ssVPlaying racquetball
p654
(dp655
VparentId
p656
I54
sVparentName
p657
VPlaying racquet sports 
p658
sVnodeId
p659
I253
sVnodeName
p660
g654
ssVBMX
p661
(dp662
VparentId
p663
I275
sVparentName
p664
VBiking
p665
sVnodeName
p666
g661
sVnodeId
p667
I274
ssVCleaning windows
p668
(dp669
VparentId
p670
I37
sVparentName
p671
VInterior cleaning
p672
sVnodeId
p673
I143
sVnodeName
p674
g668
ssVHousehold & personal organization and planning
p675
(dp676
VparentId
p677
I19
sVparentName
p678
VHousehold Management
p679
sVnodeId
p680
I41
sVnodeName
p681
g675
ssVPlastering
p682
(dp683
VparentId
p684
I33
sVparentName
p685
VInterior arrangement, decoration, & repairs
p686
sVnodeName
p687
g682
sVnodeId
p688
I340
ssVTennis serve with ball bouncing
p689
(dp690
VparentId
p691
I54
sVparentName
p692
VPlaying racquet sports 
p693
sVnodeId
p694
I152
sVnodeName
p695
g689
ssVBrushing teeth
p696
(dp697
VparentId
p698
I62
sVparentName
p699
VWashing, dressing and grooming oneself
p700
sVnodeId
p701
I148
sVnodeName
p702
g696
ssVPlaying flauta
p703
(dp704
VparentId
p705
I61
sVparentName
p706
VPlaying musical instruments
p707
sVnodeId
p708
I149
sVnodeName
p709
g703
ssVRaking leaves
p710
(dp711
VparentId
p712
I66
sVparentName
p713
VLawn, garden, and houseplant care
p714
sVnodeName
p715
g710
sVnodeId
p716
I354
ssVRope skipping
p717
(dp718
VparentId
p719
I306
sVparentName
p720
VWorking out
p721
sVnodeName
p722
g717
sVnodeId
p723
I361
ssVPlaying congas
p724
(dp725
VparentId
p726
I61
sVparentName
p727
VPlaying musical instruments
p728
sVnodeName
p729
g724
sVnodeId
p730
I345
ssVStarting a campfire
p731
(dp732
VparentId
p733
I64
sVparentName
p734
VPlaying sports
p735
sVnodeId
p736
I153
sVnodeName
p737
g731
ssVBungee jumping
p738
(dp739
VparentId
p740
I64
sVparentName
p741
VPlaying sports
p742
sVnodeId
p743
I154
sVnodeName
p744
g738
ssVMaking an omelette
p745
(dp746
VparentId
p747
I31
sVparentName
p748
VFood and drink preparation 
p749
sVnodeName
p750
g745
sVnodeId
p751
I334
ssVSports, Exercise, and Recreation
p752
(dp753
VparentId
p754
I0
sVparentName
p755
VRoot
p756
sVnodeId
p757
I5
sVnodeName
p758
g752
ssVHand car wash
p759
(dp760
VparentId
p761
I56
sVparentName
p762
VVehicle repair and maintenance (by self)
p763
sVnodeName
p764
g759
sVnodeId
p765
I318
ssVHorseback riding
p766
(dp767
VparentId
p768
I49
sVparentName
p769
VParticipating in equestrian sports
p770
sVnodeId
p771
I175
sVnodeName
p772
g766
ssVBlow-drying hair
p773
(dp774
VparentId
p775
I62
sVparentName
p776
VWashing, dressing and grooming oneself
p777
sVnodeName
p778
g773
sVnodeId
p779
I281
ssVLayup drill in basketball
p780
(dp781
VparentId
p782
I52
sVparentName
p783
VPlaying basketball
p784
sVnodeId
p785
I159
sVnodeName
p786
g780
ssVTriple jump
p787
(dp788
VparentId
p789
I64
sVparentName
p790
VPlaying sports
p791
sVnodeId
p792
I155
sVnodeName
p793
g787
ssVRafting
p794
(dp795
VparentId
p796
I293
sVparentName
p797
VBoating
p798
sVnodeName
p799
g794
sVnodeId
p800
I353
ssVVacuuming floor
p801
(dp802
VparentId
p803
I37
sVparentName
p804
VInterior cleaning
p805
sVnodeId
p806
I160
sVnodeName
p807
g801
ssVCleaning shoes
p808
(dp809
VparentId
p810
I45
sVparentName
p811
VSewing, repairing, & maintaining textiles
p812
sVnodeId
p813
I134
sVnodeName
p814
g808
ssVGetting a haircut
p815
(dp816
VparentId
p817
I38
sVparentName
p818
VWashing, dressing and grooming
p819
sVnodeId
p820
I208
sVnodeName
p821
g815
ssVSlacklining
p822
(dp823
VparentId
p824
I48
sVparentName
p825
VPlaying games
p826
sVnodeName
p827
g822
sVnodeId
p828
I371
ssVRemoving curlers
p829
(dp830
VparentId
p831
I62
sVparentName
p832
VWashing, dressing and grooming oneself
p833
sVnodeId
p834
I248
sVnodeName
p835
g829
ssVCanoeing
p836
(dp837
VparentId
p838
I293
sVparentName
p839
VBoating
p840
sVnodeName
p841
g836
sVnodeId
p842
I292
ssVDrinking beer
p843
(dp844
VparentId
p845
I46
sVparentName
p846
VEating and Drinking
p847
sVnodeId
p848
I135
sVnodeName
p849
g843
ssVEating and Drinking
p850
(dp851
VparentId
p852
I18
sVparentName
p853
VFood & Drink Prep., Presentation, & Clean-up
p854
sVnodeId
p855
I46
sVnodeName
p856
g850
ssVPlaying water polo
p857
(dp858
VparentId
p859
I42
sVparentName
p860
VParticipating in water sports
p861
sVnodeId
p862
I130
sVnodeName
p863
g857
ssVPlaying ten pins
p864
(dp865
VparentId
p866
I284
sVparentName
p867
VBowling
p868
sVnodeName
p869
g864
sVnodeId
p870
I283
ssVBraiding hair
p871
(dp872
VparentId
p873
I62
sVparentName
p874
VWashing, dressing and grooming oneself
p875
sVnodeName
p876
g871
sVnodeId
p877
I285
ssVFun sliding down
p878
(dp879
VparentId
p880
I314
sVparentName
p881
VPark activities
p882
sVnodeName
p883
g878
sVnodeId
p884
I313
ssVBuilding and repairing furniture
p885
(dp886
VparentId
p887
I15
sVparentName
p888
VInterior Maintenance, Repair, & Decoration
p889
sVnodeName
p890
g885
sVnodeId
p891
I338
ssVPainting fence
p892
(dp893
VparentId
p894
I12
sVparentName
p895
VExterior Maintenance, Repair, & Decoration
p896
sVnodeName
p897
g892
sVnodeId
p898
I336
ssVFixing bicycle
p899
(dp900
VparentId
p901
I56
sVparentName
p902
VVehicle repair and maintenance (by self)
p903
sVnodeId
p904
I171
sVnodeName
p905
g899
ssVRoot
p906
(dp907
VparentId
p908
NsVparentName
p909
NsVnodeId
p910
I0
sVnodeName
p911
g906
ssVBullfighting
p912
(dp913
VparentId
p914
I289
sVparentName
p915
VParticipating in rodeo competitions
p916
sVnodeName
p917
g912
sVnodeId
p918
I288
ssVLaying tile
p919
(dp920
VparentId
p921
I33
sVparentName
p922
VInterior arrangement, decoration, & repairs
p923
sVnodeName
p924
g919
sVnodeId
p925
I330
ssVWrapping presents
p926
(dp927
VparentId
p928
I41
sVparentName
p929
VHousehold & personal organization and planning
p930
sVnodeId
p931
I179
sVnodeName
p932
g926
ssVSmoking a cigarette
p933
(dp934
VparentId
p935
I28
sVparentName
p936
VTobacco and drug use
p937
sVnodeId
p938
I201
sVnodeName
p939
g933
ssVPlaying field hockey
p940
(dp941
VparentId
p942
I60
sVparentName
p943
VPlaying hockey
p944
sVnodeId
p945
I94
sVnodeName
p946
g940
ssVExterior Maintenance, Repair, & Decoration
p947
(dp948
VparentId
p949
I1
sVparentName
p950
VHousehold Activities
p951
sVnodeId
p952
I12
sVnodeName
p953
g947
ssVPlaying badminton
p954
(dp955
VparentId
p956
I54
sVparentName
p957
VPlaying racquet sports 
p958
sVnodeId
p959
I268
sVnodeName
p960
g954
ssVAppliance, tool, and toy set-up, repair, & maintenance (by self)
p961
(dp962
VparentId
p963
I367
sVparentName
p964
VAppliances, Tools, and Toys
p965
sVnodeName
p966
g961
sVnodeId
p967
I366
ssVAttending gambling establishments
p968
(dp969
VparentId
p970
I21
sVparentName
p971
VArts and Entertainment
p972
sVnodeName
p973
g968
sVnodeId
p974
I344
ssVPlaying beach volleyball
p975
(dp976
VparentId
p977
I342
sVparentName
p978
VPlaying volleyball
p979
sVnodeName
p980
g975
sVnodeId
p981
I341
ssVPlataform diving
p982
(dp983
VparentId
p984
I42
sVparentName
p985
VParticipating in water sports
p986
sVnodeId
p987
I233
sVnodeName
p988
g982
ssVTumbling
p989
(dp990
VparentId
p991
I24
sVparentName
p992
VDoing gymnastics
p993
sVnodeId
p994
I258
sVnodeName
p995
g989
ssVUsing parallel bars
p996
(dp997
VparentId
p998
I24
sVparentName
p999
VDoing gymnastics
p1000
sVnodeId
p1001
I88
sVnodeName
p1002
g996
ssVParticipating in Sports, Exercise, or Recreation
p1003
(dp1004
VparentId
p1005
I5
sVparentName
p1006
VSports, Exercise, and Recreation
p1007
sVnodeId
p1008
I17
sVnodeName
p1009
g1003
ssVClimbing, spelunking, caving
p1010
(dp1011
VparentId
p1012
I17
sVparentName
p1013
VParticipating in Sports, Exercise, or Recreation
p1014
sVnodeId
p1015
I50
sVnodeName
p1016
g1010
ssVCalf roping
p1017
(dp1018
VparentId
p1019
I289
sVparentName
p1020
VParticipating in rodeo competitions
p1021
sVnodeName
p1022
g1017
sVnodeId
p1023
I290
ssVHealth-related self care
p1024
(dp1025
VparentId
p1026
I270
sVparentName
p1027
VHealth-related Self Care
p1028
sVnodeName
p1029
g1024
sVnodeId
p1030
I269
ssVWalking the dog
p1031
(dp1032
VparentId
p1033
I26
sVparentName
p1034
VWalking / exercising / playing with animals
p1035
sVnodeId
p1036
I221
sVnodeName
p1037
g1031
ssVIce fishing
p1038
(dp1039
VparentId
p1040
I325
sVparentName
p1041
VFishing
p1042
sVnodeName
p1043
g1038
sVnodeId
p1044
I324
ssVSmoking hookah
p1045
(dp1046
VparentId
p1047
I28
sVparentName
p1048
VTobacco and drug use
p1049
sVnodeId
p1050
I189
sVnodeName
p1051
g1045
ssVShaving
p1052
(dp1053
VparentId
p1054
I62
sVparentName
p1055
VWashing, dressing and grooming oneself
p1056
sVnodeId
p1057
I190
sVnodeName
p1058
g1052
ssVIroning clothes
p1059
(dp1060
VparentId
p1061
I30
sVparentName
p1062
VLaundry
p1063
sVnodeId
p1064
I83
sVnodeName
p1065
g1059
ssVShoveling snow
p1066
(dp1067
VparentId
p1068
I51
sVparentName
p1069
VExterior cleaning
p1070
sVnodeId
p1071
I183
sVnodeName
p1072
g1066
ssVPlaying basketball
p1073
(dp1074
VparentId
p1075
I17
sVparentName
p1076
VParticipating in Sports, Exercise, or Recreation
p1077
sVnodeId
p1078
I52
sVnodeName
p1079
g1073
ssVPainting furniture
p1080
(dp1081
VparentId
p1082
I338
sVparentName
p1083
VBuilding and repairing furniture
p1084
sVnodeName
p1085
g1080
sVnodeId
p1086
I337
ssVHaving an ice cream
p1087
(dp1088
VparentId
p1089
I46
sVparentName
p1090
VEating and Drinking
p1091
sVnodeName
p1092
g1087
sVnodeId
p1093
I320
ssVUsing the balance beam
p1094
(dp1095
VparentId
p1096
I24
sVparentName
p1097
VDoing gymnastics
p1098
sVnodeId
p1099
I180
sVnodeName
p1100
g1094
ssVSpringboard diving
p1101
(dp1102
VparentId
p1103
I42
sVparentName
p1104
VParticipating in water sports
p1105
sVnodeId
p1106
I193
sVnodeName
p1107
g1101
ssVPlaying squash
p1108
(dp1109
VparentId
p1110
I54
sVparentName
p1111
VPlaying racquet sports 
p1112
sVnodeId
p1113
I194
sVnodeName
p1114
g1108
ssVArchery
p1115
(dp1116
VparentId
p1117
I64
sVparentName
p1118
VPlaying sports
p1119
sVnodeId
p1120
I250
sVnodeName
p1121
g1115
ssVWakeboarding
p1122
(dp1123
VparentId
p1124
I42
sVparentName
p1125
VParticipating in water sports
p1126
sVnodeName
p1127
g1122
sVnodeId
p1128
I385
ssVDoing gymnastics
p1129
(dp1130
VparentId
p1131
I17
sVparentName
p1132
VParticipating in Sports, Exercise, or Recreation
p1133
sVnodeId
p1134
I24
sVnodeName
p1135
g1129
ssVPlaying piano
p1136
(dp1137
VparentId
p1138
I61
sVparentName
p1139
VPlaying musical instruments
p1140
sVnodeId
p1141
I197
sVnodeName
p1142
g1136
ssVDodgeball
p1143
(dp1144
VparentId
p1145
I64
sVparentName
p1146
VPlaying sports
p1147
sVnodeId
p1148
I161
sVnodeName
p1149
g1143
ssVBeach activities
p1150
(dp1151
VparentId
p1152
I21
sVparentName
p1153
VArts and Entertainment
p1154
sVnodeName
p1155
g1150
sVnodeId
p1156
I287
ssVWorking out
p1157
(dp1158
VparentId
p1159
I17
sVparentName
p1160
VParticipating in Sports, Exercise, or Recreation
p1161
sVnodeName
p1162
g1157
sVnodeId
p1163
I306
ssVAttending arts and entertainment
p1164
(dp1165
VparentId
p1166
I21
sVparentName
p1167
VArts and Entertainment
p1168
sVnodeId
p1169
I39
sVnodeName
p1170
g1164
ssVParticipating in water sports
p1171
(dp1172
VparentId
p1173
I17
sVparentName
p1174
VParticipating in Sports, Exercise, or Recreation
p1175
sVnodeId
p1176
I42
sVnodeName
p1177
g1171
ssVWashing, dressing and grooming oneself
p1178
(dp1179
VparentId
p1180
I20
sVparentName
p1181
VGrooming
p1182
sVnodeId
p1183
I62
sVnodeName
p1184
g1178
ssVPutting in contact lenses
p1185
(dp1186
VparentId
p1187
I62
sVparentName
p1188
VWashing, dressing and grooming oneself
p1189
sVnodeName
p1190
g1185
sVnodeId
p1191
I351
ssVSailing
p1192
(dp1193
VparentId
p1194
I42
sVparentName
p1195
VParticipating in water sports
p1196
sVnodeId
p1197
I240
sVnodeName
p1198
g1192
ssVHula hoop
p1199
(dp1200
VparentId
p1201
I48
sVparentName
p1202
VPlaying games
p1203
sVnodeName
p1204
g1199
sVnodeId
p1205
I322
ssVParticipating in rodeo competitions
p1206
(dp1207
VparentId
p1208
I17
sVparentName
p1209
VParticipating in Sports, Exercise, or Recreation
p1210
sVnodeName
p1211
g1206
sVnodeId
p1212
I289
ssVHitting a pinata
p1213
(dp1214
VparentId
p1215
I48
sVparentName
p1216
VPlaying games
p1217
sVnodeName
p1218
g1213
sVnodeId
p1219
I321
ssVPlaying lacrosse
p1220
(dp1221
VparentId
p1222
I54
sVparentName
p1223
VPlaying racquet sports 
p1224
sVnodeId
p1225
I209
sVnodeName
p1226
g1220
ssVCleaning sink
p1227
(dp1228
VparentId
p1229
I33
sVparentName
p1230
VInterior arrangement, decoration, & repairs
p1231
sVnodeName
p1232
g1227
sVnodeId
p1233
I297
ssVBaking cookies
p1234
(dp1235
VparentId
p1236
I31
sVparentName
p1237
VFood and drink preparation 
p1238
sVnodeName
p1239
g1234
sVnodeId
p1240
I276
ssVVolleyball
p1241
(dp1242
VparentId
p1243
I342
sVparentName
p1244
VPlaying volleyball
p1245
sVnodeId
p1246
I123
sVnodeName
p1247
g1241
ssVCumbia
p1248
(dp1249
VparentId
p1250
I23
sVparentName
p1251
VDancing
p1252
sVnodeId
p1253
I211
sVnodeName
p1254
g1248
ssVDecorating the Christmas tree
p1255
(dp1256
VparentId
p1257
I33
sVparentName
p1258
VInterior arrangement, decoration, & repairs
p1259
sVnodeName
p1260
g1255
sVnodeId
p1261
I302
ssVTai chi
p1262
(dp1263
VparentId
p1264
I27
sVparentName
p1265
VParticipating in martial arts
p1266
sVnodeId
p1267
I263
sVnodeName
p1268
g1262
ssVRock-paper-scissors
p1269
(dp1270
VparentId
p1271
I48
sVparentName
p1272
VPlaying games
p1273
sVnodeName
p1274
g1269
sVnodeId
p1275
I358
ssVPlaying games
p1276
(dp1277
VparentId
p1278
I11
sVparentName
p1279
VRelaxing and Leisure
p1280
sVnodeId
p1281
I48
sVnodeName
p1282
g1276
ssVGetting a piercing
p1283
(dp1284
VparentId
p1285
I38
sVparentName
p1286
VWashing, dressing and grooming
p1287
sVnodeId
p1288
I214
sVnodeName
p1289
g1283
ssVParticipating in equestrian sports
p1290
(dp1291
VparentId
p1292
I17
sVparentName
p1293
VParticipating in Sports, Exercise, or Recreation
p1294
sVnodeId
p1295
I49
sVnodeName
p1296
g1290
ssVPole vault
p1297
(dp1298
VparentId
p1299
I64
sVparentName
p1300
VPlaying sports
p1301
sVnodeId
p1302
I106
sVnodeName
p1303
g1297
ssVGrooming
p1304
(dp1305
VparentId
p1306
I2
sVparentName
p1307
VPersonal Care
p1308
sVnodeId
p1309
I20
sVnodeName
p1310
g1304
ssVPlaying violin
p1311
(dp1312
VparentId
p1313
I61
sVparentName
p1314
VPlaying musical instruments
p1315
sVnodeId
p1316
I234
sVnodeName
p1317
g1311
ssVPainting
p1318
(dp1319
VparentId
p1320
I33
sVparentName
p1321
VInterior arrangement, decoration, & repairs
p1322
sVnodeId
p1323
I217
sVnodeName
p1324
g1318
ssVWelding
p1325
(dp1326
VparentId
p1327
I366
sVparentName
p1328
VAppliance, tool, and toy set-up, repair, & maintenance (by self)
p1329
sVnodeName
p1330
g1325
sVnodeId
p1331
I388
ssVMowing the lawn
p1332
(dp1333
VparentId
p1334
I66
sVparentName
p1335
VLawn, garden, and houseplant care
p1336
sVnodeId
p1337
I218
sVnodeName
p1338
g1332
ssVUsing cardiovascular equipment
p1339
(dp1340
VparentId
p1341
I17
sVparentName
p1342
VParticipating in Sports, Exercise, or Recreation
p1343
sVnodeId
p1344
I58
sVnodeName
p1345
g1339
ssVPowerbocking
p1346
(dp1347
VparentId
p1348
I64
sVparentName
p1349
VPlaying sports
p1350
sVnodeName
p1351
g1346
sVnodeId
p1352
I350
ssVDisc dog
p1353
(dp1354
VparentId
p1355
I26
sVparentName
p1356
VWalking / exercising / playing with animals
p1357
sVnodeName
p1358
g1353
sVnodeId
p1359
I303
ssVChanging car wheel
p1360
(dp1361
VparentId
p1362
I56
sVparentName
p1363
VVehicle repair and maintenance (by self)
p1364
sVnodeName
p1365
g1360
sVnodeId
p1366
I296
ssVInterior cleaning
p1367
(dp1368
VparentId
p1369
I16
sVparentName
p1370
VHousework
p1371
sVnodeId
p1372
I37
sVnodeName
p1373
g1367
ssVWrestling
p1374
(dp1375
VparentId
p1376
I17
sVparentName
p1377
VParticipating in Sports, Exercise, or Recreation
p1378
sVnodeName
p1379
g1374
sVnodeId
p1380
I272
ssVHousework
p1381
(dp1382
VparentId
p1383
I1
sVparentName
p1384
VHousehold Activities
p1385
sVnodeId
p1386
I16
sVnodeName
p1387
g1381
ssVCutting the grass
p1388
(dp1389
VparentId
p1390
I66
sVparentName
p1391
VLawn, garden, and houseplant care
p1392
sVnodeName
p1393
g1388
sVnodeId
p1394
I301
ssVPlaying blackjack
p1395
(dp1396
VparentId
p1397
I344
sVparentName
p1398
VAttending gambling establishments
p1399
sVnodeName
p1400
g1395
sVnodeId
p1401
I343
ssVHammer throw
p1402
(dp1403
VparentId
p1404
I64
sVparentName
p1405
VPlaying sports
p1406
sVnodeId
p1407
I224
sVnodeName
p1408
g1402
ssVWashing, dressing and grooming
p1409
(dp1410
VparentId
p1411
I20
sVparentName
p1412
VGrooming
p1413
sVnodeId
p1414
I38
sVnodeName
p1415
g1409
ssVSkiing
p1416
(dp1417
VparentId
p1418
I370
sVparentName
p1419
VSkiing, ice skating, snowboarding
p1420
sVnodeName
p1421
g1416
sVnodeId
p1422
I369
ssVWashing hands
p1423
(dp1424
VparentId
p1425
I62
sVparentName
p1426
VWashing, dressing and grooming oneself
p1427
sVnodeId
p1428
I173
sVnodeName
p1429
g1423
ssVPolishing shoes
p1430
(dp1431
VparentId
p1432
I45
sVparentName
p1433
VSewing, repairing, & maintaining textiles
p1434
sVnodeId
p1435
I227
sVnodeName
p1436
g1430
ssVKneeling
p1437
(dp1438
VparentId
p1439
I306
sVparentName
p1440
VWorking out
p1441
sVnodeName
p1442
g1437
sVnodeId
p1443
I328
ssVLawn, garden, and houseplant care
p1444
(dp1445
VparentId
p1446
I10
sVparentName
p1447
VLawn, Garden, and Houseplants
p1448
sVnodeId
p1449
I66
sVnodeName
p1450
g1444
ssVPlaying pool
p1451
(dp1452
VparentId
p1453
I48
sVparentName
p1454
VPlaying games
p1455
sVnodeName
p1456
g1451
sVnodeId
p1457
I348
ssVBallet
p1458
(dp1459
VparentId
p1460
I39
sVparentName
p1461
VAttending arts and entertainment
p1462
sVnodeId
p1463
I229
sVnodeName
p1464
g1458
ssVHanging wallpaper
p1465
(dp1466
VparentId
p1467
I33
sVparentName
p1468
VInterior arrangement, decoration, & repairs
p1469
sVnodeName
p1470
g1465
sVnodeId
p1471
I319
ssVDoing step aerobics
p1472
(dp1473
VparentId
p1474
I55
sVparentName
p1475
VDoing aerobics
p1476
sVnodeId
p1477
I230
sVnodeName
p1478
g1472
ssVLawn, Garden, and Houseplants
p1479
(dp1480
VparentId
p1481
I1
sVparentName
p1482
VHousehold Activities
p1483
sVnodeId
p1484
I10
sVnodeName
p1485
g1479
ssVHand washing clothes
p1486
(dp1487
VparentId
p1488
I30
sVparentName
p1489
VLaundry
p1490
sVnodeId
p1491
I232
sVnodeName
p1492
g1486
ssVFencing
p1493
(dp1494
VparentId
p1495
I17
sVparentName
p1496
VParticipating in Sports, Exercise, or Recreation
p1497
sVnodeName
p1498
g1493
sVnodeId
p1499
I310
ssVDoing crunches
p1500
(dp1501
VparentId
p1502
I306
sVparentName
p1503
VWorking out
p1504
sVnodeName
p1505
g1500
sVnodeId
p1506
I305
ssVDoing nails
p1507
(dp1508
VparentId
p1509
I62
sVparentName
p1510
VWashing, dressing and grooming oneself
p1511
sVnodeId
p1512
I167
sVnodeName
p1513
g1507
ssVWalking / exercising / playing with animals
p1514
(dp1515
VparentId
p1516
I22
sVparentName
p1517
VAnimals and Pets
p1518
sVnodeId
p1519
I26
sVnodeName
p1520
g1514
ssVAppliances, Tools, and Toys
p1521
(dp1522
VparentId
p1523
I1
sVparentName
p1524
VHousehold Activities
p1525
sVnodeName
p1526
g1521
sVnodeId
p1527
I367
ssVCarving jack-o-lanterns
p1528
(dp1529
VparentId
p1530
I33
sVparentName
p1531
VInterior arrangement, decoration, & repairs
p1532
sVnodeName
p1533
g1528
sVnodeId
p1534
I295
ssVBreakdancing
p1535
(dp1536
VparentId
p1537
I23
sVparentName
p1538
VDancing
p1539
sVnodeId
p1540
I236
sVnodeName
p1541
g1535
ssVPersonal Care
p1542
(dp1543
VparentId
p1544
I0
sVparentName
p1545
VRoot
p1546
sVnodeId
p1547
I2
sVnodeName
p1548
g1542
ssVParticipating in martial arts
p1549
(dp1550
VparentId
p1551
I17
sVparentName
p1552
VParticipating in Sports, Exercise, or Recreation
p1553
sVnodeId
p1554
I27
sVnodeName
p1555
g1549
ssVApplying sunscreen
p1556
(dp1557
VparentId
p1558
I269
sVparentName
p1559
VHealth-related self care
p1560
sVnodeName
p1561
g1556
sVnodeId
p1562
I389
ssVExterior repair, improvements, & decoration
p1563
(dp1564
VparentId
p1565
I12
sVparentName
p1566
VExterior Maintenance, Repair, & Decoration
p1567
sVnodeName
p1568
g1563
sVnodeId
p1569
I312
ssVRollerblading
p1570
(dp1571
VparentId
p1572
I64
sVparentName
p1573
VPlaying sports
p1574
sVnodeName
p1575
g1570
sVnodeId
p1576
I359
ssVGargling mouthwash
p1577
(dp1578
VparentId
p1579
I62
sVparentName
p1580
VWashing, dressing and grooming oneself
p1581
sVnodeName
p1582
g1577
sVnodeId
p1583
I316
ssVSpread mulch
p1584
(dp1585
VparentId
p1586
I66
sVparentName
p1587
VLawn, garden, and houseplant care
p1588
sVnodeName
p1589
g1584
sVnodeId
p1590
I374
ssVLaundry
p1591
(dp1592
VparentId
p1593
I16
sVparentName
p1594
VHousework
p1595
sVnodeId
p1596
I30
sVnodeName
p1597
g1591
ssVHopscotch
p1598
(dp1599
VparentId
p1600
I48
sVparentName
p1601
VPlaying games
p1602
sVnodeId
p1603
I241
sVnodeName
p1604
g1598
ssVArm wrestling
p1605
(dp1606
VparentId
p1607
I272
sVparentName
p1608
VWrestling
p1609
sVnodeName
p1610
g1605
sVnodeId
p1611
I271
ssVDoing motocross
p1612
(dp1613
VparentId
p1614
I64
sVparentName
p1615
VPlaying sports
p1616
sVnodeId
p1617
I243
sVnodeName
p1618
g1612
ssVMixing drinks
p1619
(dp1620
VparentId
p1621
I31
sVparentName
p1622
VFood and drink preparation 
p1623
sVnodeId
p1624
I244
sVnodeName
p1625
g1619
ssVWindsurfing
p1626
(dp1627
VparentId
p1628
I42
sVparentName
p1629
VParticipating in water sports
p1630
sVnodeId
p1631
I237
sVnodeName
p1632
g1626
ssVSumo
p1633
(dp1634
VparentId
p1635
I272
sVparentName
p1636
VWrestling
p1637
sVnodeName
p1638
g1633
sVnodeId
p1639
I375
ssVRiver tubing
p1640
(dp1641
VparentId
p1642
I293
sVparentName
p1643
VBoating
p1644
sVnodeName
p1645
g1640
sVnodeId
p1646
I357
ssVCapoeira
p1647
(dp1648
VparentId
p1649
I27
sVparentName
p1650
VParticipating in martial arts
p1651
sVnodeName
p1652
g1647
sVnodeId
p1653
I294
ssVUsing the monkey bar
p1654
(dp1655
VparentId
p1656
I314
sVparentName
p1657
VPark activities
p1658
sVnodeName
p1659
g1654
sVnodeId
p1660
I383
ssVBelly dance
p1661
(dp1662
VparentId
p1663
I23
sVparentName
p1664
VDancing
p1665
sVnodeId
p1666
I247
sVnodeName
p1667
g1661
ssVSkiing, ice skating, snowboarding
p1668
(dp1669
VparentId
p1670
I17
sVparentName
p1671
VParticipating in Sports, Exercise, or Recreation
p1672
sVnodeName
p1673
g1668
sVnodeId
p1674
I370
ssVFutsal
p1675
(dp1676
VparentId
p1677
I279
sVparentName
p1678
VPlaying soccer
p1679
sVnodeName
p1680
g1675
sVnodeId
p1681
I315
ssVKite flying
p1682
(dp1683
VparentId
p1684
I48
sVparentName
p1685
VPlaying games
p1686
sVnodeName
p1687
g1682
sVnodeId
p1688
I327
ssVPlaying musical instruments
p1689
(dp1690
VparentId
p1691
I21
sVparentName
p1692
VArts and Entertainment
p1693
sVnodeId
p1694
I61
sVnodeName
p1695
g1689
ssVMooping floor
p1696
(dp1697
VparentId
p1698
I37
sVparentName
p1699
VInterior cleaning
p1700
sVnodeName
p1701
g1696
sVnodeId
p1702
I335
ssVBrushing hair
p1703
(dp1704
VparentId
p1705
I62
sVparentName
p1706
VWashing, dressing and grooming oneself
p1707
sVnodeId
p1708
I125
sVnodeName
p1709
g1703
ssVPlaying volleyball
p1710
(dp1711
VparentId
p1712
I17
sVparentName
p1713
VParticipating in Sports, Exercise, or Recreation
p1714
sVnodeName
p1715
g1710
sVnodeId
p1716
I342
ssVSurfing
p1717
(dp1718
VparentId
p1719
I42
sVparentName
p1720
VParticipating in water sports
p1721
sVnodeName
p1722
g1717
sVnodeId
p1723
I376
ssVPlaying accordion
p1724
(dp1725
VparentId
p1726
I61
sVparentName
p1727
VPlaying musical instruments
p1728
sVnodeId
p1729
I267
sVnodeName
p1730
g1724
ssVPeeling potatoes
p1731
(dp1732
VparentId
p1733
I31
sVparentName
p1734
VFood and drink preparation 
p1735
sVnodeName
p1736
g1731
sVnodeId
p1737
I339
ssVBuilding sandcastles
p1738
(dp1739
VparentId
p1740
I287
sVparentName
p1741
VBeach activities
p1742
sVnodeName
p1743
g1738
sVnodeId
p1744
I286
ssVEating and drinking Activities
p1745
(dp1746
VparentId
p1747
I0
sVparentName
p1748
VRoot
p1749
sVnodeId
p1750
I4
sVnodeName
p1751
g1745
ssVKayaking
p1752
(dp1753
VparentId
p1754
I42
sVparentName
p1755
VParticipating in water sports
p1756
sVnodeId
p1757
I254
sVnodeName
p1758
g1752
ssVPolishing forniture
p1759
(dp1760
VparentId
p1761
I37
sVparentName
p1762
VInterior cleaning
p1763
sVnodeId
p1764
I156
sVnodeName
p1765
g1759
ssVCamel ride
p1766
(dp1767
VparentId
p1768
I64
sVparentName
p1769
VPlaying sports
p1770
sVnodeName
p1771
g1766
sVnodeId
p1772
I291
ssVShot put
p1773
(dp1774
VparentId
p1775
I64
sVparentName
p1776
VPlaying sports
p1777
sVnodeId
p1778
I169
sVnodeName
p1779
g1773
ssVUsing uneven bars
p1780
(dp1781
VparentId
p1782
I24
sVparentName
p1783
VDoing gymnastics
p1784
sVnodeId
p1785
I192
sVnodeName
p1786
g1780
ssVBaton twirling
p1787
(dp1788
VparentId
p1789
I64
sVparentName
p1790
VPlaying sports
p1791
sVnodeName
p1792
g1787
sVnodeId
p1793
I277
ssVTug of war
p1794
(dp1795
VparentId
p1796
I48
sVparentName
p1797
VPlaying games
p1798
sVnodeName
p1799
g1794
sVnodeId
p1800
I382
ssVBiking
p1801
(dp1802
VparentId
p1803
I17
sVparentName
p1804
VParticipating in Sports, Exercise, or Recreation
p1805
sVnodeName
p1806
g1801
sVnodeId
p1807
I275
ssVGetting a tattoo
p1808
(dp1809
VparentId
p1810
I38
sVparentName
p1811
VWashing, dressing and grooming
p1812
sVnodeId
p1813
I187
sVnodeName
p1814
g1808
ssVDoing aerobics
p1815
(dp1816
VparentId
p1817
I17
sVparentName
p1818
VParticipating in Sports, Exercise, or Recreation
p1819
sVnodeId
p1820
I55
sVnodeName
p1821
g1815
ssVElliptical trainer
p1822
(dp1823
VparentId
p1824
I58
sVparentName
p1825
VUsing cardiovascular equipment
p1826
sVnodeName
p1827
g1822
sVnodeId
p1828
I308
ssVCurling
p1829
(dp1830
VparentId
p1831
I64
sVparentName
p1832
VPlaying sports
p1833
sVnodeName
p1834
g1829
sVnodeId
p1835
I300
ssVKitchen and food clean-up
p1836
(dp1837
VparentId
p1838
I18
sVparentName
p1839
VFood & Drink Prep., Presentation, & Clean-up
p1840
sVnodeId
p1841
I43
sVnodeName
p1842
g1836
ssVPlaying harmonica
p1843
(dp1844
VparentId
p1845
I61
sVparentName
p1846
VPlaying musical instruments
p1847
sVnodeId
p1848
I100
sVnodeName
p1849
g1843
ssVDrum corps
p1850
(dp1851
VparentId
p1852
I61
sVparentName
p1853
VPlaying musical instruments
p1854
sVnodeName
p1855
g1850
sVnodeId
p1856
I307
ssVPlaying kickball
p1857
(dp1858
VparentId
p1859
I64
sVparentName
p1860
VPlaying sports
p1861
sVnodeId
p1862
I257
sVnodeName
p1863
g1857
ssVPlaying hockey
p1864
(dp1865
VparentId
p1866
I17
sVparentName
p1867
VParticipating in Sports, Exercise, or Recreation
p1868
sVnodeId
p1869
I60
sVnodeName
p1870
g1864
ssVFishing
p1871
(dp1872
VparentId
p1873
I17
sVparentName
p1874
VParticipating in Sports, Exercise, or Recreation
p1875
sVnodeName
p1876
g1871
sVnodeId
p1877
I325
ssVSnow tubing
p1878
(dp1879
VparentId
p1880
I370
sVparentName
p1881
VSkiing, ice skating, snowboarding
p1882
sVnodeName
p1883
g1878
sVnodeId
p1884
I372
ssVHeating and cooling
p1885
(dp1886
VparentId
p1887
I15
sVparentName
p1888
VInterior Maintenance, Repair, & Decoration
p1889
sVnodeId
p1890
I34
sVnodeName
p1891
g1885
ssVShaving legs
p1892
(dp1893
VparentId
p1894
I62
sVparentName
p1895
VWashing, dressing and grooming oneself
p1896
sVnodeId
p1897
I200
sVnodeName
p1898
g1892
ssVWashing dishes
p1899
(dp1900
VparentId
p1901
I43
sVparentName
p1902
VKitchen and food clean-up
p1903
sVnodeId
p1904
I213
sVnodeName
p1905
g1899
sssS'version'
p1906
VVERSION 1.3
p1907
sS'actionIDs'
p1908
(dp1909
VPlaying accordion
p1910
(dp1911
S'count'
p1912
I108
sS'nodeId'
p1913
I267
sS'class'
p1914
I1
ssVDrinking coffee
p1915
(dp1916
g1912
I106
sg1913
I68
sg1914
I2
ssVZumba
p1917
(dp1918
g1912
I70
sg1913
I69
sg1914
I3
ssVDoing kickboxing
p1919
(dp1920
g1912
I76
sg1913
I70
sg1914
I4
ssVDoing karate
p1921
(dp1922
g1912
I79
sg1913
I99
sg1914
I5
ssVTango
p1923
(dp1924
g1912
I92
sg1913
I73
sg1914
I6
ssVRoof shingle removal
p1925
(dp1926
g1912
I76
sg1913
I360
sg1914
I7
ssVSkiing
p1927
(dp1928
g1912
I224
sg1913
I369
sg1914
I8
ssVPutting on makeup
p1929
(dp1930
g1912
I116
sg1913
I76
sg1914
I9
ssVRiding bumper cars
p1931
(dp1932
g1912
I84
sg1913
I356
sg1914
I10
ssVHigh jump
p1933
(dp1934
g1912
I140
sg1913
I195
sg1914
I11
ssVPlaying bagpipes
p1935
(dp1936
g1912
I83
sg1913
I136
sg1914
I12
ssVSnowboarding
p1937
(dp1938
g1912
I225
sg1913
I373
sg1914
I13
ssVLong jump
p1939
(dp1940
g1912
I127
sg1913
I80
sg1914
I14
ssVCricket
p1941
(dp1942
g1912
I120
sg1913
I82
sg1914
I15
ssVRemoving ice from car
p1943
(dp1944
g1912
I88
sg1913
I355
sg1914
I16
ssVIroning clothes
p1945
(dp1946
g1912
I101
sg1913
I83
sg1914
I17
ssVSwinging at the playground
p1947
(dp1948
g1912
I90
sg1913
I378
sg1914
I18
ssVClean and jerk
p1949
(dp1950
g1912
I122
sg1913
I84
sg1914
I19
ssVPreparing pasta
p1951
(dp1952
g1912
I111
sg1913
I186
sg1914
I20
ssVBathing dog
p1953
(dp1954
g1912
I68
sg1913
I90
sg1914
I21
ssVSharpening knives
p1955
(dp1956
g1912
I107
sg1913
I365
sg1914
I22
ssVDiscus throw
p1957
(dp1958
g1912
I176
sg1913
I92
sg1914
I23
ssVKnitting
p1959
(dp1960
g1912
I77
sg1913
I329
sg1914
I24
ssVPlaying rubik cube
p1961
(dp1962
g1912
I100
sg1913
I349
sg1914
I25
ssVGrooming horse
p1963
(dp1964
g1912
I86
sg1913
I95
sg1914
I26
ssVGrooming dog
p1965
(dp1966
g1912
I137
sg1913
I317
sg1914
I27
ssVSnatch
p1967
(dp1968
g1912
I158
sg1913
I79
sg1914
I28
ssVPreparing salad
p1969
(dp1970
g1912
I108
sg1913
I96
sg1914
I29
ssVBeach soccer
p1971
(dp1972
g1912
I164
sg1913
I278
sg1914
I30
ssVPlaying drums
p1973
(dp1974
g1912
I184
sg1913
I346
sg1914
I31
ssVPlaying harmonica
p1975
(dp1976
g1912
I125
sg1913
I100
sg1914
I32
ssVDoing a powerbomb
p1977
(dp1978
g1912
I99
sg1913
I304
sg1914
I33
ssVPutting on shoes
p1979
(dp1980
g1912
I68
sg1913
I352
sg1914
I34
ssVPlaying ice hockey
p1981
(dp1982
g1912
I129
sg1913
I347
sg1914
I35
ssVScuba diving
p1983
(dp1984
g1912
I211
sg1913
I364
sg1914
I36
ssVThrowing darts
p1985
(dp1986
g1912
I175
sg1913
I380
sg1914
I37
ssVSwimming
p1987
(dp1988
g1912
I162
sg1913
I377
sg1914
I38
ssVClipping cat claws
p1989
(dp1990
g1912
I84
sg1913
I298
sg1914
I39
ssVSlacklining
p1991
(dp1992
g1912
I186
sg1913
I371
sg1914
I40
ssVPlaying saxophone
p1993
(dp1994
g1912
I122
sg1913
I109
sg1914
I41
ssVChopping wood
p1995
(dp1996
g1912
I107
sg1913
I110
sg1914
I42
ssVTrimming branches or hedges
p1997
(dp1998
g1912
I99
sg1913
I381
sg1914
I43
ssVWashing face
p1999
(dp2000
g1912
I106
sg1913
I113
sg1914
I44
ssVFixing the roof
p2001
(dp2002
g1912
I80
sg1913
I311
sg1914
I45
ssVUsing the pommel horse
p2003
(dp2004
g1912
I84
sg1913
I114
sg1914
I46
ssVJavelin throw
p2005
(dp2006
g1912
I124
sg1913
I116
sg1914
I47
ssVSpinning
p2007
(dp2008
g1912
I129
sg1913
I117
sg1914
I48
ssVSpringboard diving
p2009
(dp2010
g1912
I115
sg1913
I193
sg1914
I49
ssVPing-pong
p2011
(dp2012
g1912
I90
sg1913
I119
sg1914
I50
ssVTable soccer
p2013
(dp2014
g1912
I81
sg1913
I379
sg1914
I51
ssVLongboarding
p2015
(dp2016
g1912
I247
sg1913
I331
sg1914
I52
ssVMaking a lemonade
p2017
(dp2018
g1912
I127
sg1913
I333
sg1914
I53
ssVInstalling carpet
p2019
(dp2020
g1912
I70
sg1913
I326
sg1914
I54
ssVArchery
p2021
(dp2022
g1912
I153
sg1913
I250
sg1914
I55
ssVUsing the rowing machine
p2023
(dp2024
g1912
I87
sg1913
I384
sg1914
I56
ssVMaking a cake
p2025
(dp2026
g1912
I126
sg1913
I332
sg1914
I57
ssVWaterskiing
p2027
(dp2028
g1912
I147
sg1913
I386
sg1914
I58
ssVGetting a tattoo
p2029
(dp2030
g1912
I96
sg1913
I187
sg1914
I59
ssVPlaying water polo
p2031
(dp2032
g1912
I129
sg1913
I130
sg1914
I60
ssVBeer pong
p2033
(dp2034
g1912
I166
sg1913
I280
sg1914
I61
ssVBlowing leaves
p2035
(dp2036
g1912
I81
sg1913
I282
sg1914
I62
ssVRock climbing
p2037
(dp2038
g1912
I112
sg1913
I188
sg1914
I63
ssVAssembling bicycle
p2039
(dp2040
g1912
I65
sg1913
I273
sg1914
I64
ssVHurling
p2041
(dp2042
g1912
I163
sg1913
I323
sg1914
I65
ssVShot put
p2043
(dp2044
g1912
I180
sg1913
I169
sg1914
I66
ssVWaxing skis
p2045
(dp2046
g1912
I75
sg1913
I387
sg1914
I67
ssVDoing fencing
p2047
(dp2048
g1912
I169
sg1913
I309
sg1914
I68
ssVPlaying polo
p2049
(dp2050
g1912
I98
sg1913
I75
sg1914
I69
ssVCheerleading
p2051
(dp2052
g1912
I143
sg1913
I140
sg1914
I70
ssVPaintball
p2053
(dp2054
g1912
I113
sg1913
I141
sg1914
I71
ssVBuilding sandcastles
p2055
(dp2056
g1912
I82
sg1913
I286
sg1914
I72
ssVBMX
p2057
(dp2058
g1912
I166
sg1913
I274
sg1914
I73
ssVCleaning windows
p2059
(dp2060
g1912
I96
sg1913
I143
sg1914
I74
ssVPlastering
p2061
(dp2062
g1912
I86
sg1913
I340
sg1914
I75
ssVTennis serve with ball bouncing
p2063
(dp2064
g1912
I102
sg1913
I152
sg1914
I76
ssVBrushing teeth
p2065
(dp2066
g1912
I87
sg1913
I148
sg1914
I77
ssVPlaying flauta
p2067
(dp2068
g1912
I121
sg1913
I149
sg1914
I78
ssVRaking leaves
p2069
(dp2070
g1912
I76
sg1913
I354
sg1914
I79
ssVRope skipping
p2071
(dp2072
g1912
I175
sg1913
I361
sg1914
I80
ssVPlaying congas
p2073
(dp2074
g1912
I180
sg1913
I345
sg1914
I81
ssVBungee jumping
p2075
(dp2076
g1912
I88
sg1913
I154
sg1914
I82
ssVTriple jump
p2077
(dp2078
g1912
I162
sg1913
I155
sg1914
I83
ssVHand car wash
p2079
(dp2080
g1912
I158
sg1913
I318
sg1914
I84
ssVHorseback riding
p2081
(dp2082
g1912
I120
sg1913
I175
sg1914
I85
ssVBlow-drying hair
p2083
(dp2084
g1912
I97
sg1913
I281
sg1914
I86
ssVLayup drill in basketball
p2085
(dp2086
g1912
I172
sg1913
I159
sg1914
I87
ssVMaking an omelette
p2087
(dp2088
g1912
I50
sg1913
I334
sg1914
I88
ssVRafting
p2089
(dp2090
g1912
I212
sg1913
I353
sg1914
I89
ssVVacuuming floor
p2091
(dp2092
g1912
I103
sg1913
I160
sg1914
I90
ssVCleaning shoes
p2093
(dp2094
g1912
I77
sg1913
I134
sg1914
I91
ssVCanoeing
p2095
(dp2096
g1912
I157
sg1913
I292
sg1914
I92
ssVDrinking beer
p2097
(dp2098
g1912
I74
sg1913
I135
sg1914
I93
ssVDoing nails
p2099
(dp2100
g1912
I100
sg1913
I167
sg1914
I94
ssVSpread mulch
p2101
(dp2102
g1912
I54
sg1913
I374
sg1914
I95
ssVPlaying ten pins
p2103
(dp2104
g1912
I271
sg1913
I283
sg1914
I96
ssVBraiding hair
p2105
(dp2106
g1912
I90
sg1913
I285
sg1914
I97
ssVFun sliding down
p2107
(dp2108
g1912
I103
sg1913
I313
sg1914
I98
ssVPainting fence
p2109
(dp2110
g1912
I101
sg1913
I336
sg1914
I99
ssVFixing bicycle
p2111
(dp2112
g1912
I93
sg1913
I171
sg1914
I100
ssVWashing hands
p2113
(dp2114
g1912
I120
sg1913
I173
sg1914
I101
ssVBullfighting
p2115
(dp2116
g1912
I151
sg1913
I288
sg1914
I102
ssVLaying tile
p2117
(dp2118
g1912
I62
sg1913
I330
sg1914
I103
ssVWrapping presents
p2119
(dp2120
g1912
I98
sg1913
I179
sg1914
I104
ssVPlaying field hockey
p2121
(dp2122
g1912
I130
sg1913
I94
sg1914
I105
ssVShoveling snow
p2123
(dp2124
g1912
I106
sg1913
I183
sg1914
I106
ssVPlaying beach volleyball
p2125
(dp2126
g1912
I94
sg1913
I341
sg1914
I107
ssVTumbling
p2127
(dp2128
g1912
I124
sg1913
I258
sg1914
I108
ssVUsing parallel bars
p2129
(dp2130
g1912
I119
sg1913
I88
sg1914
I109
ssVCalf roping
p2131
(dp2132
g1912
I110
sg1913
I290
sg1914
I110
ssVMaking a sandwich
p2133
(dp2134
g1912
I85
sg1913
I129
sg1914
I111
ssVIce fishing
p2135
(dp2136
g1912
I81
sg1913
I324
sg1914
I112
ssVSmoking hookah
p2137
(dp2138
g1912
I94
sg1913
I189
sg1914
I113
ssVShaving
p2139
(dp2140
g1912
I112
sg1913
I190
sg1914
I114
ssVRunning a marathon
p2141
(dp2142
g1912
I189
sg1913
I362
sg1914
I115
ssVHaving an ice cream
p2143
(dp2144
g1912
I111
sg1913
I320
sg1914
I116
ssVGetting a piercing
p2145
(dp2146
g1912
I84
sg1913
I214
sg1914
I117
ssVPainting furniture
p2147
(dp2148
g1912
I61
sg1913
I337
sg1914
I118
ssVPlaying guitarra
p2149
(dp2150
g1912
I109
sg1913
I251
sg1914
I119
ssVPlaying squash
p2151
(dp2152
g1912
I89
sg1913
I194
sg1914
I120
ssVPlaying piano
p2153
(dp2154
g1912
I92
sg1913
I197
sg1914
I121
ssVShuffleboard
p2155
(dp2156
g1912
I140
sg1913
I368
sg1914
I122
ssVWakeboarding
p2157
(dp2158
g1912
I184
sg1913
I385
sg1914
I123
ssVDodgeball
p2159
(dp2160
g1912
I87
sg1913
I161
sg1914
I124
ssVSmoking a cigarette
p2161
(dp2162
g1912
I128
sg1913
I201
sg1914
I125
ssVPutting in contact lenses
p2163
(dp2164
g1912
I96
sg1913
I351
sg1914
I126
ssVSailing
p2165
(dp2166
g1912
I114
sg1913
I240
sg1914
I127
ssVHula hoop
p2167
(dp2168
g1912
I100
sg1913
I322
sg1914
I128
ssVGetting a haircut
p2169
(dp2170
g1912
I122
sg1913
I208
sg1914
I129
ssVHitting a pinata
p2171
(dp2172
g1912
I132
sg1913
I321
sg1914
I130
ssVPlaying lacrosse
p2173
(dp2174
g1912
I96
sg1913
I209
sg1914
I131
ssVCleaning sink
p2175
(dp2176
g1912
I62
sg1913
I297
sg1914
I132
ssVBaking cookies
p2177
(dp2178
g1912
I113
sg1913
I276
sg1914
I133
ssVVolleyball
p2179
(dp2180
g1912
I95
sg1913
I123
sg1914
I134
ssVCumbia
p2181
(dp2182
g1912
I86
sg1913
I211
sg1914
I135
ssVDecorating the Christmas tree
p2183
(dp2184
g1912
I73
sg1913
I302
sg1914
I136
ssVTai chi
p2185
(dp2186
g1912
I102
sg1913
I263
sg1914
I137
ssVRock-paper-scissors
p2187
(dp2188
g1912
I148
sg1913
I358
sg1914
I138
ssVPole vault
p2189
(dp2190
g1912
I156
sg1913
I106
sg1914
I139
ssVCroquet
p2191
(dp2192
g1912
I141
sg1913
I299
sg1914
I140
ssVPainting
p2193
(dp2194
g1912
I103
sg1913
I217
sg1914
I141
ssVWelding
p2195
(dp2196
g1912
I117
sg1913
I388
sg1914
I142
ssVMowing the lawn
p2197
(dp2198
g1912
I113
sg1913
I218
sg1914
I143
ssVShaving legs
p2199
(dp2200
g1912
I102
sg1913
I200
sg1914
I144
ssVPowerbocking
p2201
(dp2202
g1912
I125
sg1913
I350
sg1914
I145
ssVDisc dog
p2203
(dp2204
g1912
I178
sg1913
I303
sg1914
I146
ssVUsing the balance beam
p2205
(dp2206
g1912
I125
sg1913
I180
sg1914
I147
ssVChanging car wheel
p2207
(dp2208
g1912
I110
sg1913
I296
sg1914
I148
ssVWalking the dog
p2209
(dp2210
g1912
I115
sg1913
I221
sg1914
I149
ssVCutting the grass
p2211
(dp2212
g1912
I115
sg1913
I301
sg1914
I150
ssVPlaying blackjack
p2213
(dp2214
g1912
I89
sg1913
I343
sg1914
I151
ssVHammer throw
p2215
(dp2216
g1912
I111
sg1913
I224
sg1914
I152
ssVSkateboarding
p2217
(dp2218
g1912
I159
sg1913
I176
sg1914
I153
ssVPolishing shoes
p2219
(dp2220
g1912
I84
sg1913
I227
sg1914
I154
ssVKneeling
p2221
(dp2222
g1912
I115
sg1913
I328
sg1914
I155
ssVPlaying pool
p2223
(dp2224
g1912
I120
sg1913
I348
sg1914
I156
ssVBallet
p2225
(dp2226
g1912
I100
sg1913
I229
sg1914
I157
ssVHanging wallpaper
p2227
(dp2228
g1912
I86
sg1913
I319
sg1914
I158
ssVDoing step aerobics
p2229
(dp2230
g1912
I89
sg1913
I230
sg1914
I159
ssVHand washing clothes
p2231
(dp2232
g1912
I86
sg1913
I232
sg1914
I160
ssVPlataform diving
p2233
(dp2234
g1912
I125
sg1913
I233
sg1914
I161
ssVDoing crunches
p2235
(dp2236
g1912
I77
sg1913
I305
sg1914
I162
ssVPlaying violin
p2237
(dp2238
g1912
I146
sg1913
I234
sg1914
I163
ssVCarving jack-o-lanterns
p2239
(dp2240
g1912
I82
sg1913
I295
sg1914
I164
ssVBreakdancing
p2241
(dp2242
g1912
I107
sg1913
I236
sg1914
I165
ssVApplying sunscreen
p2243
(dp2244
g1912
I107
sg1913
I389
sg1914
I166
ssVRollerblading
p2245
(dp2246
g1912
I95
sg1913
I359
sg1914
I167
ssVGargling mouthwash
p2247
(dp2248
g1912
I53
sg1913
I316
sg1914
I168
ssVWindsurfing
p2249
(dp2250
g1912
I93
sg1913
I237
sg1914
I169
ssVHopscotch
p2251
(dp2252
g1912
I98
sg1913
I241
sg1914
I170
ssVArm wrestling
p2253
(dp2254
g1912
I152
sg1913
I271
sg1914
I171
ssVDoing motocross
p2255
(dp2256
g1912
I96
sg1913
I243
sg1914
I172
ssVMixing drinks
p2257
(dp2258
g1912
I114
sg1913
I244
sg1914
I173
ssVSumo
p2259
(dp2260
g1912
I126
sg1913
I375
sg1914
I174
ssVRiver tubing
p2261
(dp2262
g1912
I141
sg1913
I357
sg1914
I175
ssVCapoeira
p2263
(dp2264
g1912
I173
sg1913
I294
sg1914
I176
ssVStarting a campfire
p2265
(dp2266
g1912
I72
sg1913
I153
sg1914
I177
ssVBelly dance
p2267
(dp2268
g1912
I75
sg1913
I247
sg1914
I178
ssVRemoving curlers
p2269
(dp2270
g1912
I63
sg1913
I248
sg1914
I179
ssVFutsal
p2271
(dp2272
g1912
I202
sg1913
I315
sg1914
I180
ssVKite flying
p2273
(dp2274
g1912
I62
sg1913
I327
sg1914
I181
ssVMooping floor
p2275
(dp2276
g1912
I118
sg1913
I335
sg1914
I182
ssVBrushing hair
p2277
(dp2278
g1912
I97
sg1913
I125
sg1914
I183
ssVSurfing
p2279
(dp2280
g1912
I280
sg1913
I376
sg1914
I184
ssVPeeling potatoes
p2281
(dp2282
g1912
I59
sg1913
I339
sg1914
I185
ssVPlaying racquetball
p2283
(dp2284
g1912
I84
sg1913
I253
sg1914
I186
ssVKayaking
p2285
(dp2286
g1912
I144
sg1913
I254
sg1914
I187
ssVPolishing forniture
p2287
(dp2288
g1912
I78
sg1913
I156
sg1914
I188
ssVCamel ride
p2289
(dp2290
g1912
I71
sg1913
I291
sg1914
I189
ssVPlaying kickball
p2291
(dp2292
g1912
I74
sg1913
I257
sg1914
I190
ssVUsing uneven bars
p2293
(dp2294
g1912
I78
sg1913
I192
sg1914
I191
ssVBaton twirling
p2295
(dp2296
g1912
I120
sg1913
I277
sg1914
I192
ssVTug of war
p2297
(dp2298
g1912
I85
sg1913
I382
sg1914
I193
ssVWashing dishes
p2299
(dp2300
g1912
I109
sg1913
I213
sg1914
I194
ssVElliptical trainer
p2301
(dp2302
g1912
I180
sg1913
I308
sg1914
I195
ssVCurling
p2303
(dp2304
g1912
I200
sg1913
I300
sg1914
I196
ssVUsing the monkey bar
p2305
(dp2306
g1912
I80
sg1913
I383
sg1914
I197
ssVDrum corps
p2307
(dp2308
g1912
I99
sg1913
I307
sg1914
I198
ssVPlaying badminton
p2309
(dp2310
g1912
I77
sg1913
I268
sg1914
I199
ssVSnow tubing
p2311
(dp2312
g1912
I155
sg1913
I372
sg1914
I200
sssS'database'
p2313
(dp2314
VsJFgo9H6zNo
p2315
(dp2316
Vsubset
p2317
Vtraining
p2318
sVurl
p2319
Vhttps://www.youtube.com/watch?v=sJFgo9H6zNo
p2320
sS'newResolution'
p2321
(lp2322
I256
aI456
asS'isnull'
p2323
I0
sS'numf'
p2324
I4165
sS'fps'
p2325
F29.97002997002997
sVduration
p2326
F139.042
sVresolution
p2327
V640x360
p2328
sS'annotations'
p2329
(lp2330
(dp2331
S'ef'
p2332
I3699
sS'nodeid'
p2333
I313
sS'sf'
p2334
I0
sS'label'
p2335
VFun sliding down
p2336
sS'segment'
p2337
(lp2338
F0.01
aF123.42336739937599
asg1914
I98
sasss.